; Function Attrs: mustprogress uwtable
define internal noundef i64 @_ZN11OpenImageIO6v3_1_0L15reader_seekprocEPvmi(ptr noundef %0, i64 noundef %1, i32 noundef %2) #5 {
  switch i32 %2, label %_ZN11OpenImageIO6v3_1_010Filesystem7IOProxy4seekEli.exit [
    i32 1, label %.thread.i
    i32 2, label %9
  ]

.thread.i:                                        ; preds = %3
  %4 = load ptr, ptr %0, align 8, !tbaa !24
  %5 = getelementptr inbounds nuw i8, ptr %4, i64 40
  %6 = load ptr, ptr %5, align 8
  %7 = tail call noundef i64 %6(ptr noundef nonnull align 8 dereferenceable(88) %0)
  %8 = add nsw i64 %7, %1
  br label %_ZN11OpenImageIO6v3_1_010Filesystem7IOProxy4seekEli.exit

9:                                                ; preds = %3
  %10 = load ptr, ptr %0, align 8, !tbaa !24
  %11 = getelementptr inbounds nuw i8, ptr %10, i64 88
  %12 = load ptr, ptr %11, align 8
  %13 = tail call noundef i64 %12(ptr noundef nonnull align 8 dereferenceable(88) %0)
  %14 = add nsw i64 %13, %1
  br label %_ZN11OpenImageIO6v3_1_010Filesystem7IOProxy4seekEli.exit

_ZN11OpenImageIO6v3_1_010Filesystem7IOProxy4seekEli.exit: ; preds = %3, %.thread.i, %9
  %15 = phi i64 [ 0, %9 ], [ %8, %.thread.i ], [ 0, %3 ]
  %16 = phi i64 [ %14, %9 ], [ 0, %.thread.i ], [ 0, %3 ]
  %17 = icmp eq i32 %2, 0
  %18 = select i1 %17, i64 %1, i64 0
  %19 = add nsw i64 %15, %18
  %20 = add nsw i64 %19, %16
  %21 = load ptr, ptr %0, align 8, !tbaa !24
  %22 = getelementptr inbounds nuw i8, ptr %21, i64 48
  %23 = load ptr, ptr %22, align 8
  %24 = tail call noundef zeroext i1 %23(ptr noundef nonnull align 8 dereferenceable(88) %0, i64 noundef %20)
  br i1 %24, label %25, label %30

25:                                               ; preds = %_ZN11OpenImageIO6v3_1_010Filesystem7IOProxy4seekEli.exit
  %26 = load ptr, ptr %0, align 8, !tbaa !24
  %27 = getelementptr inbounds nuw i8, ptr %26, i64 40
  %28 = load ptr, ptr %27, align 8
  %29 = tail call noundef i64 %28(ptr noundef nonnull align 8 dereferenceable(88) %0)
  br label %30

30:                                               ; preds = %_ZN11OpenImageIO6v3_1_010Filesystem7IOProxy4seekEli.exit, %25
  %31 = phi i64 [ %29, %25 ], [ -1, %_ZN11OpenImageIO6v3_1_010Filesystem7IOProxy4seekEli.exit ]
  ret i64 %31
}